target datalayout = "e-m:e-p270:32:32-p271:32:32-p272:64:64-i64:64-i128:128-f80:128-n8:16:32:64-S128"
target triple = "x86_64-pc-linux-gnu"

%struct.H5RS_str_t = type { ptr, ptr, i64, i64, i8, i32 }

@H5RS_init_g = global i8 0, align 1
@H5_libterm_g = external global i8, align 1

; Function Attrs: nounwind uwtable
define ptr @H5RS_dup(ptr noundef %0) #0 {
  %2 = alloca ptr, align 8
  store ptr %0, ptr %2, align 8, !tbaa !8
  %3 = load i8, ptr @H5RS_init_g, align 1, !tbaa !10, !range !12, !noundef !13
  %4 = trunc i8 %3 to i1
  br i1 %4, label %9, label %5

5:                                                ; preds = %1
  %6 = load i8, ptr @H5_libterm_g, align 1, !tbaa !10, !range !12, !noundef !13
  %7 = trunc i8 %6 to i1
  %8 = xor i1 %7, true
  br label %9

9:                                                ; preds = %5, %1
  %10 = phi i1 [ true, %1 ], [ %8, %5 ]
  %11 = xor i1 %10, true
  %12 = xor i1 %11, true
  %13 = zext i1 %12 to i32
  %14 = sext i32 %13 to i64
  %15 = call i64 @llvm.expect.i64(i64 %14, i64 1)
  %16 = icmp ne i64 %15, 0
  br i1 %16, label %17, label %26

17:                                               ; preds = %9
  %18 = load ptr, ptr %2, align 8, !tbaa !8
  %19 = icmp ne ptr %18, null
  br i1 %19, label %20, label %25

20:                                               ; preds = %17
  %21 = load ptr, ptr %2, align 8, !tbaa !8
  %22 = getelementptr inbounds nuw %struct.H5RS_str_t, ptr %21, i32 0, i32 5
  %23 = load i32, ptr %22, align 4, !tbaa !16
  %24 = add i32 %23, 1
  store i32 %24, ptr %22, align 4, !tbaa !16
  br label %25

25:                                               ; preds = %20, %17
  br label %26

26:                                               ; preds = %25, %9
  %27 = load ptr, ptr %2, align 8, !tbaa !8
  ret ptr %27
}